target datalayout = "e-m:e-p270:32:32-p271:32:32-p272:64:64-i64:64-i128:128-f80:128-n8:16:32:64-S128"
target triple = "x86_64-pc-linux-gnu"

%struct.rb_data_type_struct = type { ptr, %struct.anon, ptr, ptr, i64 }
%struct.anon = type { ptr, ptr, ptr, ptr, [1 x ptr] }
%struct.RTypedData = type { %struct.RBasic, ptr, i64, ptr }
%struct.RBasic = type { i64, i64 }
%struct.load_chained_certificates_arguments = type { i64, ptr }

@cX509Cert = global i64 0, align 8
@ossl_x509_type = internal constant %struct.rb_data_type_struct { ptr @.str.34, %struct.anon { ptr null, ptr @ossl_x509_free, ptr null, ptr null, [1 x ptr] zeroinitializer }, ptr null, ptr null, i64 33 }, align 8
@eX509CertError = internal global i64 0, align 8
@rb_eRuntimeError = external global i64, align 8
@.str = private unnamed_addr constant [25 x i8] c"CERT wasn't initialized!\00", align 1

; Function Attrs: nounwind sspstrong uwtable
define i64 @ossl_x509_new(ptr noundef %0) #0 {
  %2 = alloca ptr, align 8
  %3 = alloca ptr, align 8
  %4 = alloca i64, align 8
  store ptr %0, ptr %2, align 8, !tbaa !6
  call void @llvm.lifetime.start.p0(i64 8, ptr %3) #15
  call void @llvm.lifetime.start.p0(i64 8, ptr %4) #15
  %5 = load i64, ptr @cX509Cert, align 8, !tbaa !11
  %6 = call i64 @rb_data_typed_object_wrap(i64 noundef %5, ptr noundef null, ptr noundef @ossl_x509_type)
  store i64 %6, ptr %4, align 8, !tbaa !11
  %7 = load ptr, ptr %2, align 8, !tbaa !6
  %8 = icmp ne ptr %7, null
  br i1 %8, label %11, label %9

9:                                                ; preds = %1
  %10 = call ptr @X509_new()
  store ptr %10, ptr %3, align 8, !tbaa !6
  br label %14

11:                                               ; preds = %1
  %12 = load ptr, ptr %2, align 8, !tbaa !6
  %13 = call ptr @X509_dup(ptr noundef %12)
  store ptr %13, ptr %3, align 8, !tbaa !6
  br label %14

14:                                               ; preds = %11, %9
  %15 = load ptr, ptr %3, align 8, !tbaa !6
  %16 = icmp ne ptr %15, null
  br i1 %16, label %19, label %17

17:                                               ; preds = %14
  %18 = load i64, ptr @eX509CertError, align 8, !tbaa !11
  call void (i64, ptr, ...) @ossl_raise(i64 noundef %18, ptr noundef null) #16
  unreachable

19:                                               ; preds = %14
  br label %20

20:                                               ; preds = %19
  %21 = load ptr, ptr %3, align 8, !tbaa !6
  %22 = icmp ne ptr %21, null
  br i1 %22, label %25, label %23

23:                                               ; preds = %20
  %24 = load i64, ptr @rb_eRuntimeError, align 8, !tbaa !11
  call void (i64, ptr, ...) @ossl_raise(i64 noundef %24, ptr noundef @.str) #16
  unreachable

25:                                               ; preds = %20
  %26 = load ptr, ptr %3, align 8, !tbaa !6
  %27 = load i64, ptr %4, align 8, !tbaa !11
  %28 = inttoptr i64 %27 to ptr
  %29 = getelementptr inbounds nuw %struct.RTypedData, ptr %28, i32 0, i32 3
  store ptr %26, ptr %29, align 8, !tbaa !13
  br label %30

30:                                               ; preds = %25
  br label %31

31:                                               ; preds = %30
  %32 = load i64, ptr %4, align 8, !tbaa !11
  call void @llvm.lifetime.end.p0(i64 8, ptr %4) #15
  call void @llvm.lifetime.end.p0(i64 8, ptr %3) #15
  ret i64 %32
}

; Function Attrs: nounwind sspstrong uwtable
define internal i64 @load_chained_certificates_append_push(i64 noundef %0) #0 {
  %2 = alloca i64, align 8
  %3 = alloca ptr, align 8
  store i64 %0, ptr %2, align 8, !tbaa !11
  call void @llvm.lifetime.start.p0(i64 8, ptr %3) #15
  %4 = load i64, ptr %2, align 8, !tbaa !11
  %5 = inttoptr i64 %4 to ptr
  store ptr %5, ptr %3, align 8, !tbaa !49
  %6 = load ptr, ptr %3, align 8, !tbaa !49
  %7 = getelementptr inbounds nuw %struct.load_chained_certificates_arguments, ptr %6, i32 0, i32 0
  %8 = load i64, ptr %7, align 8, !tbaa !46
  %9 = icmp eq i64 %8, 4
  br i1 %9, label %10, label %14

10:                                               ; preds = %1
  %11 = call i64 @rb_ary_new()
  %12 = load ptr, ptr %3, align 8, !tbaa !49
  %13 = getelementptr inbounds nuw %struct.load_chained_certificates_arguments, ptr %12, i32 0, i32 0
  store i64 %11, ptr %13, align 8, !tbaa !46
  br label %14

14:                                               ; preds = %10, %1
  %15 = load ptr, ptr %3, align 8, !tbaa !49
  %16 = getelementptr inbounds nuw %struct.load_chained_certificates_arguments, ptr %15, i32 0, i32 0
  %17 = load i64, ptr %16, align 8, !tbaa !46
  %18 = load ptr, ptr %3, align 8, !tbaa !49
  %19 = getelementptr inbounds nuw %struct.load_chained_certificates_arguments, ptr %18, i32 0, i32 1
  %20 = load ptr, ptr %19, align 8, !tbaa !48
  %21 = call i64 @ossl_x509_new(ptr noundef %20)
  %22 = call i64 @rb_ary_push(i64 noundef %17, i64 noundef %21)
  call void @llvm.lifetime.end.p0(i64 8, ptr %3) #15
  ret i64 4
}