; Function Attrs: nounwind sspstrong uwtable
define internal noundef i64 @load_chained_certificates_append_push(i64 noundef %0) #0 {
  %2 = inttoptr i64 %0 to ptr
  %3 = load i64, ptr %2, align 8, !tbaa !45
  %4 = icmp eq i64 %3, 4
  br i1 %4, label %5, label %7

5:                                                ; preds = %1
  %6 = tail call i64 @rb_ary_new() #5
  store i64 %6, ptr %2, align 8, !tbaa !45
  br label %7

7:                                                ; preds = %5, %1
  %8 = phi i64 [ %6, %5 ], [ %3, %1 ]
  %9 = getelementptr inbounds nuw i8, ptr %2, i64 8
  %10 = load ptr, ptr %9, align 8, !tbaa !48
  %11 = load i64, ptr @cX509Cert, align 8, !tbaa !6
  %12 = tail call i64 @rb_data_typed_object_wrap(i64 noundef %11, ptr noundef null, ptr noundef nonnull @ossl_x509_type) #5
  %.not.i = icmp eq ptr %10, null
  br i1 %.not.i, label %13, label %15

13:                                               ; preds = %7
  %14 = tail call ptr @X509_new() #5
  br label %17

15:                                               ; preds = %7
  %16 = tail call ptr @X509_dup(ptr noundef nonnull %10) #5
  br label %17

17:                                               ; preds = %15, %13
  %.0.i = phi ptr [ %16, %15 ], [ %14, %13 ]
  %.not7.i = icmp eq ptr %.0.i, null
  br i1 %.not7.i, label %18, label %ossl_x509_new.exit

18:                                               ; preds = %17
  %19 = load i64, ptr @eX509CertError, align 8, !tbaa !6
  tail call void (i64, ptr, ...) @ossl_raise(i64 noundef %19, ptr noundef null) #6
  unreachable

ossl_x509_new.exit:                               ; preds = %17
  %20 = inttoptr i64 %12 to ptr
  %21 = getelementptr inbounds nuw i8, ptr %20, i64 32
  store ptr %.0.i, ptr %21, align 8, !tbaa !10
  %22 = tail call i64 @rb_ary_push(i64 noundef %8, i64 noundef %12) #5
  ret i64 4
}